; Function Attrs: nofree norecurse nosync nounwind memory(argmem: read) uwtable
define range(i32 0, 2) i32 @Fra_OneHotNodesAreEqual(ptr noundef readonly captures(none) %0, ptr noundef readonly captures(none) %1, ptr noundef readonly captures(none) %2) local_unnamed_addr #0 {
  %4 = getelementptr inbounds nuw i8, ptr %1, i64 36
  %5 = load i32, ptr %4, align 4, !tbaa !3
  %6 = getelementptr inbounds nuw i8, ptr %0, i64 40
  %7 = getelementptr inbounds nuw i8, ptr %0, i64 20
  %8 = load i32, ptr %7, align 4, !tbaa !10
  %9 = mul nsw i32 %8, %5
  %10 = sext i32 %9 to i64
  %11 = getelementptr inbounds i32, ptr %6, i64 %10
  %12 = getelementptr inbounds nuw i8, ptr %2, i64 36
  %13 = load i32, ptr %12, align 4, !tbaa !3
  %14 = mul nsw i32 %13, %8
  %15 = sext i32 %14 to i64
  %16 = getelementptr inbounds i32, ptr %6, i64 %15
  %17 = getelementptr inbounds nuw i8, ptr %0, i64 24
  %18 = load i32, ptr %17, align 8, !tbaa !13
  %19 = icmp slt i32 %18, %8
  br i1 %19, label %.lr.ph.preheader, label %._crit_edge

.lr.ph.preheader:                                 ; preds = %3
  %20 = sext i32 %18 to i64
  br label %.lr.ph

21:                                               ; preds = %.lr.ph
  %indvars.iv.next = add nsw i64 %indvars.iv, 1
  %lftr.wideiv = trunc i64 %indvars.iv.next to i32
  %exitcond.not = icmp eq i32 %8, %lftr.wideiv
  br i1 %exitcond.not, label %._crit_edge, label %.lr.ph, !llvm.loop !17

.lr.ph:                                           ; preds = %.lr.ph.preheader, %21
  %indvars.iv = phi i64 [ %20, %.lr.ph.preheader ], [ %indvars.iv.next, %21 ]
  %22 = getelementptr inbounds i32, ptr %11, i64 %indvars.iv
  %23 = load i32, ptr %22, align 4, !tbaa !16
  %24 = getelementptr inbounds i32, ptr %16, i64 %indvars.iv
  %25 = load i32, ptr %24, align 4, !tbaa !16
  %.not = icmp eq i32 %23, %25
  br i1 %.not, label %21, label %._crit_edge

._crit_edge:                                      ; preds = %.lr.ph, %21, %3
  %.012 = phi i32 [ 1, %3 ], [ 1, %21 ], [ 0, %.lr.ph ]
  ret i32 %.012
}